target datalayout = "e-m:e-p270:32:32-p271:32:32-p272:64:64-i64:64-i128:128-f80:128-n8:16:32:64-S128"
target triple = "x86_64-pc-linux-gnu"

%struct.nghttp2_session = type { %struct.nghttp2_map, %struct.nghttp2_outbound_queue, %struct.nghttp2_outbound_queue, %struct.nghttp2_outbound_queue, [8 x %struct.anon], %struct.nghttp2_active_outbound_item, %struct.nghttp2_inbound_frame, %struct.nghttp2_hd_deflater, %struct.nghttp2_hd_inflater, %struct.nghttp2_session_callbacks, %struct.nghttp2_mem, ptr, ptr, %struct.nghttp2_ratelim, i64, i64, i64, i64, i64, i64, i64, i64, i64, i64, i64, i64, i64, i64, i32, i32, i32, i32, i32, i32, i32, i32, i32, i32, i32, i32, i8, %struct.nghttp2_settings_storage, %struct.nghttp2_settings_storage, i32, i32, i32, i8, i8, i8, i8, i8, i8, [32 x i8] }
%struct.nghttp2_map = type { ptr, ptr, i64, i64 }
%struct.nghttp2_outbound_queue = type { ptr, ptr, i64 }
%struct.anon = type { %struct.nghttp2_pq }
%struct.nghttp2_pq = type { ptr, ptr, i64, i64, ptr }
%struct.nghttp2_active_outbound_item = type { ptr, %struct.nghttp2_bufs, i32 }
%struct.nghttp2_bufs = type { ptr, ptr, ptr, i64, i64, i64, i64, i64 }
%struct.nghttp2_inbound_frame = type { %union.nghttp2_frame, %union.nghttp2_ext_frame_payload, ptr, %struct.nghttp2_buf, %struct.nghttp2_buf, ptr, i64, i64, i64, i64, i32, [32 x i8] }
%union.nghttp2_frame = type { %struct.nghttp2_headers }
%struct.nghttp2_headers = type { %struct.nghttp2_frame_hd, i64, %struct.nghttp2_priority_spec, ptr, i64, i32 }
%struct.nghttp2_frame_hd = type { i64, i32, i8, i8, i8 }
%struct.nghttp2_priority_spec = type { i32, i32, i8 }
%union.nghttp2_ext_frame_payload = type { %struct.nghttp2_ext_altsvc }
%struct.nghttp2_ext_altsvc = type { ptr, i64, ptr, i64 }
%struct.nghttp2_buf = type { ptr, ptr, ptr, ptr, ptr }
%struct.nghttp2_hd_deflater = type { %struct.nghttp2_hd_context, %struct.nghttp2_hd_map, i64, i64, i8 }
%struct.nghttp2_hd_context = type { %struct.nghttp2_hd_ringbuf, ptr, i64, i64, i32, i8 }
%struct.nghttp2_hd_ringbuf = type { ptr, i64, i64, i64 }
%struct.nghttp2_hd_map = type { [128 x ptr] }
%struct.nghttp2_hd_inflater = type { %struct.nghttp2_hd_context, %struct.nghttp2_hd_huff_decode_context, %struct.nghttp2_buf, %struct.nghttp2_buf, ptr, ptr, ptr, ptr, i64, i64, i64, i64, i64, i32, i32, i8, i8, i8 }
%struct.nghttp2_hd_huff_decode_context = type { i16 }
%struct.nghttp2_session_callbacks = type { ptr, ptr, ptr, ptr, ptr, ptr, ptr, ptr, ptr, ptr, ptr, ptr, ptr, ptr, ptr, ptr, ptr, ptr, ptr, ptr, ptr, ptr, ptr, ptr, ptr, ptr, ptr, ptr }
%struct.nghttp2_mem = type { ptr, ptr, ptr, ptr, ptr }
%struct.nghttp2_ratelim = type { i64, i64, i64, i64 }
%struct.nghttp2_settings_storage = type { i32, i32, i32, i32, i32, i32, i32, i32 }
%struct.nghttp2_outbound_item = type { %union.nghttp2_frame, %union.nghttp2_ext_frame_payload, %union.nghttp2_aux_data, i64, ptr, i8 }
%union.nghttp2_aux_data = type { %struct.nghttp2_headers_aux_data }
%struct.nghttp2_headers_aux_data = type { %struct.nghttp2_data_provider_wrap, ptr, i32, i8 }
%struct.nghttp2_data_provider_wrap = type { i32, %union.anon }
%union.anon = type { %struct.anon.0 }
%struct.anon.0 = type { %union.nghttp2_data_source, ptr }
%union.nghttp2_data_source = type { ptr }
%struct.nghttp2_ext_aux_data = type { i8 }
%struct.nghttp2_extension = type { %struct.nghttp2_frame_hd, ptr }
%struct.nghttp2_origin_entry = type { ptr, i64 }

@.str = private unnamed_addr constant [83 x i8] c"(size_t)(p - (uint8_t *)ov_copy) == nov * sizeof(nghttp2_origin_entry) + len + nov\00", align 1
@.str.1 = private unnamed_addr constant [114 x i8] c"generated/home/dtcxzyw/WorkSpace/Projects/compilers/llvm-opt-benchmark/bench/nghttp2/nghttp2/lib/nghttp2_submit.c\00", align 1
@__PRETTY_FUNCTION__.nghttp2_submit_origin = private unnamed_addr constant [92 x i8] c"int nghttp2_submit_origin(nghttp2_session *, uint8_t, const nghttp2_origin_entry *, size_t)\00", align 1

; Function Attrs: nounwind uwtable
define i32 @nghttp2_submit_origin(ptr noundef %0, i8 noundef zeroext %1, ptr noundef %2, i64 noundef %3) #0 {
  %5 = alloca i32, align 4
  %6 = alloca ptr, align 8
  %7 = alloca i8, align 1
  %8 = alloca ptr, align 8
  %9 = alloca i64, align 8
  %10 = alloca ptr, align 8
  %11 = alloca ptr, align 8
  %12 = alloca ptr, align 8
  %13 = alloca ptr, align 8
  %14 = alloca ptr, align 8
  %15 = alloca ptr, align 8
  %16 = alloca i64, align 8
  %17 = alloca i64, align 8
  %18 = alloca i32, align 4
  %19 = alloca i32, align 4
  store ptr %0, ptr %6, align 8, !tbaa !3
  store i8 %1, ptr %7, align 1, !tbaa !13
  store ptr %2, ptr %8, align 8, !tbaa !10
  store i64 %3, ptr %9, align 8, !tbaa !11
  call void @llvm.lifetime.start.p0(i64 8, ptr %10) #7
  call void @llvm.lifetime.start.p0(i64 8, ptr %11) #7
  call void @llvm.lifetime.start.p0(i64 8, ptr %12) #7
  call void @llvm.lifetime.start.p0(i64 8, ptr %13) #7
  call void @llvm.lifetime.start.p0(i64 8, ptr %14) #7
  call void @llvm.lifetime.start.p0(i64 8, ptr %15) #7
  call void @llvm.lifetime.start.p0(i64 8, ptr %16) #7
  store i64 0, ptr %16, align 8, !tbaa !11
  call void @llvm.lifetime.start.p0(i64 8, ptr %17) #7
  call void @llvm.lifetime.start.p0(i64 4, ptr %18) #7
  %20 = load ptr, ptr %6, align 8, !tbaa !3
  %21 = getelementptr inbounds nuw %struct.nghttp2_session, ptr %20, i32 0, i32 10
  store ptr %21, ptr %10, align 8, !tbaa !10
  %22 = load ptr, ptr %6, align 8, !tbaa !3
  %23 = getelementptr inbounds nuw %struct.nghttp2_session, ptr %22, i32 0, i32 49
  %24 = load i8, ptr %23, align 1, !tbaa !16
  %25 = icmp ne i8 %24, 0
  br i1 %25, label %27, label %26

26:                                               ; preds = %4
  store i32 -519, ptr %5, align 4
  store i32 1, ptr %19, align 4
  br label %159

27:                                               ; preds = %4
  %28 = load i64, ptr %9, align 8, !tbaa !11
  %29 = icmp ne i64 %28, 0
  br i1 %29, label %30, label %122

30:                                               ; preds = %27
  store i64 0, ptr %17, align 8, !tbaa !11
  br label %31

31:                                               ; preds = %43, %30
  %32 = load i64, ptr %17, align 8, !tbaa !11
  %33 = load i64, ptr %9, align 8, !tbaa !11
  %34 = icmp ult i64 %32, %33
  br i1 %34, label %35, label %46

35:                                               ; preds = %31
  %36 = load ptr, ptr %8, align 8, !tbaa !10
  %37 = load i64, ptr %17, align 8, !tbaa !11
  %38 = getelementptr inbounds nuw %struct.nghttp2_origin_entry, ptr %36, i64 %37
  %39 = getelementptr inbounds nuw %struct.nghttp2_origin_entry, ptr %38, i32 0, i32 1
  %40 = load i64, ptr %39, align 8, !tbaa !55
  %41 = load i64, ptr %16, align 8, !tbaa !11
  %42 = add i64 %41, %40
  store i64 %42, ptr %16, align 8, !tbaa !11
  br label %43

43:                                               ; preds = %35
  %44 = load i64, ptr %17, align 8, !tbaa !11
  %45 = add i64 %44, 1
  store i64 %45, ptr %17, align 8, !tbaa !11
  br label %31, !llvm.loop !57

46:                                               ; preds = %31
  %47 = load i64, ptr %9, align 8, !tbaa !11
  %48 = mul i64 2, %47
  %49 = load i64, ptr %16, align 8, !tbaa !11
  %50 = add i64 %48, %49
  %51 = icmp ugt i64 %50, 16384
  br i1 %51, label %52, label %53

52:                                               ; preds = %46
  store i32 -501, ptr %5, align 4
  store i32 1, ptr %19, align 4
  br label %159

53:                                               ; preds = %46
  %54 = load ptr, ptr %10, align 8, !tbaa !10
  %55 = load i64, ptr %9, align 8, !tbaa !11
  %56 = mul i64 %55, 16
  %57 = load i64, ptr %16, align 8, !tbaa !11
  %58 = add i64 %56, %57
  %59 = load i64, ptr %9, align 8, !tbaa !11
  %60 = add i64 %58, %59
  %61 = call ptr @nghttp2_mem_malloc(ptr noundef %54, i64 noundef %60)
  store ptr %61, ptr %15, align 8, !tbaa !10
  %62 = load ptr, ptr %15, align 8, !tbaa !10
  %63 = icmp eq ptr %62, null
  br i1 %63, label %64, label %65

64:                                               ; preds = %53
  store i32 -901, ptr %5, align 4
  store i32 1, ptr %19, align 4
  br label %159

65:                                               ; preds = %53
  %66 = load ptr, ptr %15, align 8, !tbaa !10
  %67 = load i64, ptr %9, align 8, !tbaa !11
  %68 = mul i64 %67, 16
  %69 = getelementptr inbounds nuw i8, ptr %66, i64 %68
  store ptr %69, ptr %11, align 8, !tbaa !43
  store i64 0, ptr %17, align 8, !tbaa !11
  br label %70

70:                                               ; preds = %103, %65
  %71 = load i64, ptr %17, align 8, !tbaa !11
  %72 = load i64, ptr %9, align 8, !tbaa !11
  %73 = icmp ult i64 %71, %72
  br i1 %73, label %74, label %106

74:                                               ; preds = %70
  %75 = load ptr, ptr %11, align 8, !tbaa !43
  %76 = load ptr, ptr %15, align 8, !tbaa !10
  %77 = load i64, ptr %17, align 8, !tbaa !11
  %78 = getelementptr inbounds nuw %struct.nghttp2_origin_entry, ptr %76, i64 %77
  %79 = getelementptr inbounds nuw %struct.nghttp2_origin_entry, ptr %78, i32 0, i32 0
  store ptr %75, ptr %79, align 8, !tbaa !59
  %80 = load ptr, ptr %8, align 8, !tbaa !10
  %81 = load i64, ptr %17, align 8, !tbaa !11
  %82 = getelementptr inbounds nuw %struct.nghttp2_origin_entry, ptr %80, i64 %81
  %83 = getelementptr inbounds nuw %struct.nghttp2_origin_entry, ptr %82, i32 0, i32 1
  %84 = load i64, ptr %83, align 8, !tbaa !55
  %85 = load ptr, ptr %15, align 8, !tbaa !10
  %86 = load i64, ptr %17, align 8, !tbaa !11
  %87 = getelementptr inbounds nuw %struct.nghttp2_origin_entry, ptr %85, i64 %86
  %88 = getelementptr inbounds nuw %struct.nghttp2_origin_entry, ptr %87, i32 0, i32 1
  store i64 %84, ptr %88, align 8, !tbaa !55
  %89 = load ptr, ptr %11, align 8, !tbaa !43
  %90 = load ptr, ptr %8, align 8, !tbaa !10
  %91 = load i64, ptr %17, align 8, !tbaa !11
  %92 = getelementptr inbounds nuw %struct.nghttp2_origin_entry, ptr %90, i64 %91
  %93 = getelementptr inbounds nuw %struct.nghttp2_origin_entry, ptr %92, i32 0, i32 0
  %94 = load ptr, ptr %93, align 8, !tbaa !59
  %95 = load ptr, ptr %8, align 8, !tbaa !10
  %96 = load i64, ptr %17, align 8, !tbaa !11
  %97 = getelementptr inbounds nuw %struct.nghttp2_origin_entry, ptr %95, i64 %96
  %98 = getelementptr inbounds nuw %struct.nghttp2_origin_entry, ptr %97, i32 0, i32 1
  %99 = load i64, ptr %98, align 8, !tbaa !55
  %100 = call ptr @nghttp2_cpymem(ptr noundef %89, ptr noundef %94, i64 noundef %99)
  store ptr %100, ptr %11, align 8, !tbaa !43
  %101 = load ptr, ptr %11, align 8, !tbaa !43
  %102 = getelementptr inbounds nuw i8, ptr %101, i32 1
  store ptr %102, ptr %11, align 8, !tbaa !43
  store i8 0, ptr %101, align 1, !tbaa !13
  br label %103

103:                                              ; preds = %74
  %104 = load i64, ptr %17, align 8, !tbaa !11
  %105 = add i64 %104, 1
  store i64 %105, ptr %17, align 8, !tbaa !11
  br label %70, !llvm.loop !60

106:                                              ; preds = %70
  %107 = load ptr, ptr %11, align 8, !tbaa !43
  %108 = load ptr, ptr %15, align 8, !tbaa !10
  %109 = ptrtoint ptr %107 to i64
  %110 = ptrtoint ptr %108 to i64
  %111 = sub i64 %109, %110
  %112 = load i64, ptr %9, align 8, !tbaa !11
  %113 = mul i64 %112, 16
  %114 = load i64, ptr %16, align 8, !tbaa !11
  %115 = add i64 %113, %114
  %116 = load i64, ptr %9, align 8, !tbaa !11
  %117 = add i64 %115, %116
  %118 = icmp eq i64 %111, %117
  br i1 %118, label %119, label %120

119:                                              ; preds = %106
  br label %121

120:                                              ; preds = %106
  call void @__assert_fail(ptr noundef @.str, ptr noundef @.str.1, i32 noundef 539, ptr noundef @__PRETTY_FUNCTION__.nghttp2_submit_origin) #8
  unreachable

121:                                              ; preds = %119
  br label %123

122:                                              ; preds = %27
  store ptr null, ptr %15, align 8, !tbaa !10
  br label %123

123:                                              ; preds = %122, %121
  %124 = load ptr, ptr %10, align 8, !tbaa !10
  %125 = call ptr @nghttp2_mem_malloc(ptr noundef %124, i64 noundef 160)
  store ptr %125, ptr %12, align 8, !tbaa !46
  %126 = load ptr, ptr %12, align 8, !tbaa !46
  %127 = icmp eq ptr %126, null
  br i1 %127, label %128, label %129

128:                                              ; preds = %123
  store i32 -901, ptr %18, align 4, !tbaa !8
  br label %156

129:                                              ; preds = %123
  %130 = load ptr, ptr %12, align 8, !tbaa !46
  call void @nghttp2_outbound_item_init(ptr noundef %130)
  %131 = load ptr, ptr %12, align 8, !tbaa !46
  %132 = getelementptr inbounds nuw %struct.nghttp2_outbound_item, ptr %131, i32 0, i32 2
  %133 = getelementptr inbounds nuw %struct.nghttp2_ext_aux_data, ptr %132, i32 0, i32 0
  store i8 1, ptr %133, align 8, !tbaa !13
  %134 = load ptr, ptr %12, align 8, !tbaa !46
  %135 = getelementptr inbounds nuw %struct.nghttp2_outbound_item, ptr %134, i32 0, i32 1
  store ptr %135, ptr %14, align 8, !tbaa !10
  %136 = load ptr, ptr %12, align 8, !tbaa !46
  %137 = getelementptr inbounds nuw %struct.nghttp2_outbound_item, ptr %136, i32 0, i32 0
  store ptr %137, ptr %13, align 8, !tbaa !10
  %138 = load ptr, ptr %14, align 8, !tbaa !10
  %139 = load ptr, ptr %13, align 8, !tbaa !10
  %140 = getelementptr inbounds nuw %struct.nghttp2_extension, ptr %139, i32 0, i32 1
  store ptr %138, ptr %140, align 8, !tbaa !13
  %141 = load ptr, ptr %13, align 8, !tbaa !10
  %142 = load ptr, ptr %15, align 8, !tbaa !10
  %143 = load i64, ptr %9, align 8, !tbaa !11
  call void @nghttp2_frame_origin_init(ptr noundef %141, ptr noundef %142, i64 noundef %143)
  %144 = load ptr, ptr %6, align 8, !tbaa !3
  %145 = load ptr, ptr %12, align 8, !tbaa !46
  %146 = call i32 @nghttp2_session_add_item(ptr noundef %144, ptr noundef %145)
  store i32 %146, ptr %18, align 4, !tbaa !8
  %147 = load i32, ptr %18, align 4, !tbaa !8
  %148 = icmp ne i32 %147, 0
  br i1 %148, label %149, label %155

149:                                              ; preds = %129
  %150 = load ptr, ptr %13, align 8, !tbaa !10
  %151 = load ptr, ptr %10, align 8, !tbaa !10
  call void @nghttp2_frame_origin_free(ptr noundef %150, ptr noundef %151)
  %152 = load ptr, ptr %10, align 8, !tbaa !10
  %153 = load ptr, ptr %12, align 8, !tbaa !46
  call void @nghttp2_mem_free(ptr noundef %152, ptr noundef %153)
  %154 = load i32, ptr %18, align 4, !tbaa !8
  store i32 %154, ptr %5, align 4
  store i32 1, ptr %19, align 4
  br label %159

155:                                              ; preds = %129
  store i32 0, ptr %5, align 4
  store i32 1, ptr %19, align 4
  br label %159

156:                                              ; preds = %128
  %157 = load ptr, ptr %15, align 8, !tbaa !10
  call void @free(ptr noundef %157) #7
  %158 = load i32, ptr %18, align 4, !tbaa !8
  store i32 %158, ptr %5, align 4
  store i32 1, ptr %19, align 4
  br label %159

159:                                              ; preds = %156, %155, %149, %64, %52, %26
  call void @llvm.lifetime.end.p0(i64 4, ptr %18) #7
  call void @llvm.lifetime.end.p0(i64 8, ptr %17) #7
  call void @llvm.lifetime.end.p0(i64 8, ptr %16) #7
  call void @llvm.lifetime.end.p0(i64 8, ptr %15) #7
  call void @llvm.lifetime.end.p0(i64 8, ptr %14) #7
  call void @llvm.lifetime.end.p0(i64 8, ptr %13) #7
  call void @llvm.lifetime.end.p0(i64 8, ptr %12) #7
  call void @llvm.lifetime.end.p0(i64 8, ptr %11) #7
  call void @llvm.lifetime.end.p0(i64 8, ptr %10) #7
  %160 = load i32, ptr %5, align 4
  ret i32 %160
}